target datalayout = "e-m:e-p270:32:32-p271:32:32-p272:64:64-i64:64-i128:128-f80:128-n8:16:32:64-S128"
target triple = "x86_64-unknown-linux-gnu"

@.str.16512 = private unnamed_addr constant [3 x i8] c"%s\00", align 1
@.str.16513 = private unnamed_addr constant [12 x i8] c"255.255.255\00", align 1
@.str.16514 = private unnamed_addr constant [9 x i8] c" (git:%s\00", align 1
@.str.16515 = private unnamed_addr constant [7 x i8] c"-dirty\00", align 1
@.str.16516 = private unnamed_addr constant [2 x i8] c")\00", align 1

; Function Attrs: nounwind uwtable
define internal ptr @benchmarkVersion() #0 {
entry:
  %version = alloca ptr, align 8
  %call = call ptr @hi_sdsempty()
  %call1 = call ptr (ptr, ptr, ...) @hi_sdscatprintf(ptr noundef %call, ptr noundef @.str.16512, ptr noundef @.str.16513)
  store ptr %call1, ptr %version, align 8
  %call2 = call ptr @redisGitSHA1()
  %call3 = call i64 @strtoll(ptr noundef %call2, ptr noundef null, i32 noundef 16) #12
  %tobool = icmp ne i64 %call3, 0
  br i1 %tobool, label %if.then, label %if.end12

if.then:                                          ; preds = %entry
  %0 = load ptr, ptr %version, align 8
  %call4 = call ptr @redisGitSHA1()
  %call5 = call ptr (ptr, ptr, ...) @hi_sdscatprintf(ptr noundef %0, ptr noundef @.str.16514, ptr noundef %call4)
  store ptr %call5, ptr %version, align 8
  %call6 = call ptr @redisGitDirty()
  %call7 = call i64 @strtoll(ptr noundef %call6, ptr noundef null, i32 noundef 10) #12
  %tobool8 = icmp ne i64 %call7, 0
  br i1 %tobool8, label %if.then9, label %if.end

if.then9:                                         ; preds = %if.then
  %1 = load ptr, ptr %version, align 8
  %call10 = call ptr (ptr, ptr, ...) @hi_sdscatprintf(ptr noundef %1, ptr noundef @.str.16515)
  store ptr %call10, ptr %version, align 8
  br label %if.end

if.end:                                           ; preds = %if.then9, %if.then
  %2 = load ptr, ptr %version, align 8
  %call11 = call ptr @hi_sdscat(ptr noundef %2, ptr noundef @.str.16516)
  store ptr %call11, ptr %version, align 8
  br label %if.end12

if.end12:                                         ; preds = %if.end, %entry
  %3 = load ptr, ptr %version, align 8
  ret ptr %3
}