; Function Attrs: nounwind uwtable
define internal fastcc ptr @benchmarkVersion() unnamed_addr #0 {
entry:
  %call = tail call ptr @hi_sdsempty() #22
  %call1 = tail call ptr (ptr, ptr, ...) @hi_sdscatprintf(ptr noundef %call, ptr noundef nonnull @.str.16512, ptr noundef nonnull @.str.16513) #22
  %call2 = tail call ptr @redisGitSHA1() #22
  %call3 = tail call i64 @strtoll(ptr nocapture noundef %call2, ptr noundef null, i32 noundef 16) #22
  %tobool.not = icmp eq i64 %call3, 0
  br i1 %tobool.not, label %if.end12, label %if.then

if.then:                                          ; preds = %entry
  %call4 = tail call ptr @redisGitSHA1() #22
  %call5 = tail call ptr (ptr, ptr, ...) @hi_sdscatprintf(ptr noundef %call1, ptr noundef nonnull @.str.16514, ptr noundef %call4) #22
  %call6 = tail call ptr @redisGitDirty() #22
  %call7 = tail call i64 @strtoll(ptr nocapture noundef %call6, ptr noundef null, i32 noundef 10) #22
  %tobool8.not = icmp eq i64 %call7, 0
  br i1 %tobool8.not, label %if.end, label %if.then9

if.then9:                                         ; preds = %if.then
  %call10 = tail call ptr (ptr, ptr, ...) @hi_sdscatprintf(ptr noundef %call5, ptr noundef nonnull @.str.16515) #22
  br label %if.end

if.end:                                           ; preds = %if.then9, %if.then
  %version.0 = phi ptr [ %call10, %if.then9 ], [ %call5, %if.then ]
  %call11 = tail call ptr @hi_sdscat(ptr noundef %version.0, ptr noundef nonnull @.str.16516) #22
  br label %if.end12

if.end12:                                         ; preds = %if.end, %entry
  %version.1 = phi ptr [ %call11, %if.end ], [ %call1, %entry ]
  ret ptr %version.1
}